; Function Attrs: nofree norecurse nosync nounwind memory(none) uwtable
define internal range(i32 0, 2) i32 @RSA_der2rsa_does_selection(ptr readnone captures(none) %0, i32 noundef %1) #1 {
  %3 = icmp eq i32 %1, 0
  br i1 %3, label %der2key_check_selection.exit, label %.preheader.i

4:                                                ; preds = %.preheader.i
  %5 = add nuw nsw i64 %.0103.i, 1
  %exitcond.not.i = icmp eq i64 %5, 3
  br i1 %exitcond.not.i, label %der2key_check_selection.exit, label %.preheader.i, !llvm.loop !12

.preheader.i:                                     ; preds = %2, %4
  %.0103.i = phi i64 [ %5, %4 ], [ 0, %2 ]
  %6 = getelementptr inbounds nuw [3 x i32], ptr @__const.der2key_check_selection.checks, i64 0, i64 %.0103.i
  %7 = load i32, ptr %6, align 4, !tbaa !14
  %8 = and i32 %7, %1
  %.not.i = icmp eq i32 %8, 0
  br i1 %.not.i, label %4, label %9

9:                                                ; preds = %.preheader.i
  %10 = icmp samesign ult i64 %.0103.i, 2
  %11 = zext i1 %10 to i32
  br label %der2key_check_selection.exit

der2key_check_selection.exit:                     ; preds = %4, %2, %9
  %.0.i = phi i32 [ %11, %9 ], [ 1, %2 ], [ 0, %4 ]
  ret i32 %.0.i
}